; Function Attrs: mustprogress nofree norecurse nosync nounwind willreturn memory(argmem: write) uwtable
define void @_ZN7rocksdb41GetDataCollectionUnixWriteTimeInfoForFileERKSt10shared_ptrIKNS_15TablePropertiesEEPSt10unique_ptrINS_31DataCollectionUnixWriteTimeInfoESt14default_deleteIS7_EE(ptr dead_on_unwind noalias writable writeonly sret(%"class.rocksdb::Status") align 8 captures(none) initializes((0, 6), (8, 16)) %0, ptr noundef nonnull readnone align 1 captures(none) %1, ptr noundef readnone captures(none) %2) local_unnamed_addr #3 personality ptr @__gxx_personality_v0 {
  store i8 3, ptr %0, align 8, !tbaa !143, !alias.scope !153
  %4 = getelementptr inbounds nuw i8, ptr %0, i64 1
  store i8 0, ptr %4, align 1, !tbaa !156, !alias.scope !153
  %5 = getelementptr inbounds nuw i8, ptr %0, i64 2
  %6 = getelementptr inbounds nuw i8, ptr %0, i64 8
  store ptr null, ptr %6, align 8, !tbaa !18, !alias.scope !153
  store i32 0, ptr %5, align 2, !alias.scope !153
  ret void
}